; Function Attrs: nounwind uwtable
define ptr @l_Lake_Toml_mlLiteralStringFn(ptr noundef %0, ptr noundef %1) #1 {
  %3 = getelementptr inbounds nuw i8, ptr %1, i64 24
  %4 = load ptr, ptr %3, align 8, !tbaa !10
  %5 = ptrtoint ptr %4 to i64
  %6 = and i64 %5, 1
  %.not = icmp eq i64 %6, 0
  br i1 %.not, label %7, label %lean_inc.exit23

7:                                                ; preds = %2
  %.val.i = load i32, ptr %4, align 4, !tbaa !4
  %8 = icmp sgt i32 %.val.i, 0
  br i1 %8, label %9, label %11, !prof !9

9:                                                ; preds = %7
  %10 = add nuw i32 %.val.i, 1
  store i32 %10, ptr %4, align 4, !tbaa !4
  br label %lean_inc.exit23

11:                                               ; preds = %7
  %.not.i28 = icmp eq i32 %.val.i, 0
  br i1 %.not.i28, label %lean_inc.exit23, label %12

12:                                               ; preds = %11
  tail call void @lean_inc_ref_cold(ptr noundef nonnull %4) #4
  br label %lean_inc.exit23

lean_inc.exit23:                                  ; preds = %12, %11, %9, %2
  %13 = load ptr, ptr @l_Lake_Toml_mlLiteralStringFn___closed__4, align 8, !tbaa !10
  %14 = ptrtoint ptr %0 to i64
  %15 = and i64 %14, 1
  %.not35 = icmp eq i64 %15, 0
  br i1 %.not35, label %16, label %lean_inc.exit22

16:                                               ; preds = %lean_inc.exit23
  %.val.i29 = load i32, ptr %0, align 4, !tbaa !4
  %17 = icmp sgt i32 %.val.i29, 0
  br i1 %17, label %18, label %20, !prof !9

18:                                               ; preds = %16
  %19 = add nuw i32 %.val.i29, 1
  store i32 %19, ptr %0, align 4, !tbaa !4
  br label %lean_inc.exit22

20:                                               ; preds = %16
  %.not.i30 = icmp eq i32 %.val.i29, 0
  br i1 %.not.i30, label %lean_inc.exit22, label %21

21:                                               ; preds = %20
  tail call void @lean_inc_ref_cold(ptr noundef nonnull %0) #4
  br label %lean_inc.exit22

lean_inc.exit22:                                  ; preds = %21, %20, %18, %lean_inc.exit23
  %22 = tail call ptr @l_Lean_Parser_atomicFn(ptr noundef %13, ptr noundef %0, ptr noundef nonnull %1) #4
  %23 = getelementptr inbounds nuw i8, ptr %22, i64 40
  %24 = load ptr, ptr %23, align 8, !tbaa !10
  %25 = ptrtoint ptr %24 to i64
  %26 = and i64 %25, 1
  %.not36 = icmp eq i64 %26, 0
  br i1 %.not36, label %27, label %lean_inc.exit

27:                                               ; preds = %lean_inc.exit22
  %.val.i32 = load i32, ptr %24, align 4, !tbaa !4
  %28 = icmp sgt i32 %.val.i32, 0
  br i1 %28, label %29, label %31, !prof !9

29:                                               ; preds = %27
  %30 = add nuw i32 %.val.i32, 1
  store i32 %30, ptr %24, align 4, !tbaa !4
  br label %lean_inc.exit

31:                                               ; preds = %27
  %.not.i33 = icmp eq i32 %.val.i32, 0
  br i1 %.not.i33, label %lean_inc.exit, label %32

32:                                               ; preds = %31
  tail call void @lean_inc_ref_cold(ptr noundef nonnull %24) #4
  br label %lean_inc.exit

lean_inc.exit:                                    ; preds = %32, %31, %29, %lean_inc.exit22
  %33 = tail call zeroext i8 @l_Option_beqOption____x40_Init_Data_Option_Basic___hyg_160____at_Lean_Parser_ParserState_hasError___spec__1(ptr noundef %24, ptr noundef nonnull inttoptr (i64 1 to ptr)) #4
  %34 = icmp eq i8 %33, 0
  br i1 %34, label %35, label %50

35:                                               ; preds = %lean_inc.exit
  br i1 %.not, label %36, label %lean_dec.exit21

36:                                               ; preds = %35
  %37 = load i32, ptr %4, align 4, !tbaa !4
  %38 = icmp sgt i32 %37, 1
  br i1 %38, label %39, label %41, !prof !9

39:                                               ; preds = %36
  %40 = add nsw i32 %37, -1
  store i32 %40, ptr %4, align 4, !tbaa !4
  br label %lean_dec.exit21

41:                                               ; preds = %36
  %.not.i = icmp eq i32 %37, 0
  br i1 %.not.i, label %lean_dec.exit21, label %42

42:                                               ; preds = %41
  tail call void @lean_dec_ref_cold(ptr noundef nonnull %4) #4
  br label %lean_dec.exit21

lean_dec.exit21:                                  ; preds = %42, %41, %39, %35
  br i1 %.not35, label %43, label %lean_dec.exit20

43:                                               ; preds = %lean_dec.exit21
  %44 = load i32, ptr %0, align 4, !tbaa !4
  %45 = icmp sgt i32 %44, 1
  br i1 %45, label %46, label %48, !prof !9

46:                                               ; preds = %43
  %47 = add nsw i32 %44, -1
  store i32 %47, ptr %0, align 4, !tbaa !4
  br label %lean_dec.exit20

48:                                               ; preds = %43
  %.not.i24 = icmp eq i32 %44, 0
  br i1 %.not.i24, label %lean_dec.exit20, label %49

49:                                               ; preds = %48
  tail call void @lean_dec_ref_cold(ptr noundef nonnull %0) #4
  br label %lean_dec.exit20

50:                                               ; preds = %lean_inc.exit
  %51 = tail call ptr @l_Lake_Toml_mlLiteralStringAuxFn(ptr noundef %4, ptr noundef nonnull inttoptr (i64 1 to ptr), ptr noundef %0, ptr noundef nonnull %22)
  br i1 %.not35, label %52, label %lean_dec.exit20

52:                                               ; preds = %50
  %53 = load i32, ptr %0, align 4, !tbaa !4
  %54 = icmp sgt i32 %53, 1
  br i1 %54, label %55, label %57, !prof !9

55:                                               ; preds = %52
  %56 = add nsw i32 %53, -1
  store i32 %56, ptr %0, align 4, !tbaa !4
  br label %lean_dec.exit20

57:                                               ; preds = %52
  %.not.i26 = icmp eq i32 %53, 0
  br i1 %.not.i26, label %lean_dec.exit20, label %58

58:                                               ; preds = %57
  tail call void @lean_dec_ref_cold(ptr noundef nonnull %0) #4
  br label %lean_dec.exit20

lean_dec.exit20:                                  ; preds = %50, %55, %57, %58, %lean_dec.exit21, %46, %48, %49
  %.0 = phi ptr [ %22, %49 ], [ %22, %48 ], [ %22, %46 ], [ %22, %lean_dec.exit21 ], [ %51, %58 ], [ %51, %57 ], [ %51, %55 ], [ %51, %50 ]
  ret ptr %.0
}